target datalayout = "e-m:e-p270:32:32-p271:32:32-p272:64:64-i64:64-i128:128-f80:128-n8:16:32:64-S128"
target triple = "x86_64-pc-linux-gnu"

%struct.pj_ctx = type <{ %"class.std::__cxx11::basic_string", i32, i32, i8, i8, [6 x i8], ptr, ptr, ptr, i32, i8, [3 x i8], i32, [4 x i8], %"class.std::__cxx11::basic_string", %"class.std::vector.8", ptr, ptr, ptr, i8, [7 x i8], %struct.projFileApiCallbackAndData, %"class.std::__cxx11::basic_string", %"class.std::__cxx11::basic_string", i8, [7 x i8], %"class.std::__cxx11::basic_string", %struct.projNetworkCallbacksAndData, %"class.std::__cxx11::basic_string", %struct.projGridChunkCache, i32, i32, i32, [4 x i8] }>
%"class.std::vector.8" = type { %"struct.std::_Vector_base.9" }
%"struct.std::_Vector_base.9" = type { %"struct.std::_Vector_base<std::__cxx11::basic_string<char>, std::allocator<std::__cxx11::basic_string<char>>>::_Vector_impl" }
%"struct.std::_Vector_base<std::__cxx11::basic_string<char>, std::allocator<std::__cxx11::basic_string<char>>>::_Vector_impl" = type { %"struct.std::_Vector_base<std::__cxx11::basic_string<char>, std::allocator<std::__cxx11::basic_string<char>>>::_Vector_impl_data" }
%"struct.std::_Vector_base<std::__cxx11::basic_string<char>, std::allocator<std::__cxx11::basic_string<char>>>::_Vector_impl_data" = type { ptr, ptr, ptr }
%struct.projFileApiCallbackAndData = type { ptr, ptr, ptr, ptr, ptr, ptr, ptr, ptr, ptr, ptr, ptr }
%struct.projNetworkCallbacksAndData = type { i8, ptr, ptr, ptr, ptr, ptr }
%"class.std::__cxx11::basic_string" = type { %"struct.std::__cxx11::basic_string<char>::_Alloc_hider", i64, %union.anon }
%"struct.std::__cxx11::basic_string<char>::_Alloc_hider" = type { ptr }
%union.anon = type { i64, [8 x i8] }
%struct.projGridChunkCache = type <{ i8, [7 x i8], %"class.std::__cxx11::basic_string", i64, i32, [4 x i8] }>

@.str = private unnamed_addr constant [11 x i8] c"PROJ_DEBUG\00", align 1
@.str.1 = private unnamed_addr constant [3 x i8] c"ON\00", align 1
@.str.2 = private unnamed_addr constant [4 x i8] c"OFF\00", align 1
@stderr = external global ptr, align 8
@.str.3 = private unnamed_addr constant [34 x i8] c"Invalid value for PROJ_DEBUG: %s\0A\00", align 1
@_ZN6pj_ctxD1Ev = hidden unnamed_addr alias void (ptr), ptr @_ZN6pj_ctxD2Ev

; Function Attrs: mustprogress nounwind uwtable
define linkonce_odr void @_ZNSt15__new_allocatorINSt7__cxx1112basic_stringIcSt11char_traitsIcESaIcEEEEC2Ev(ptr noundef nonnull align 1 dereferenceable(1) %0) unnamed_addr #1 comdat align 2 {
  %2 = alloca ptr, align 8
  store ptr %0, ptr %2, align 8
  ret void
}

; Function Attrs: mustprogress nounwind uwtable
define linkonce_odr void @_ZNSt12_Vector_baseINSt7__cxx1112basic_stringIcSt11char_traitsIcESaIcEEESaIS5_EE17_Vector_impl_dataC2Ev(ptr noundef nonnull align 8 dereferenceable(24) %0) unnamed_addr #1 comdat align 2 {
  %2 = alloca ptr, align 8
  store ptr %0, ptr %2, align 8
  %3 = load ptr, ptr %2, align 8
  %4 = getelementptr inbounds %"struct.std::_Vector_base<std::__cxx11::basic_string<char>, std::allocator<std::__cxx11::basic_string<char>>>::_Vector_impl_data", ptr %3, i32 0, i32 0
  store ptr null, ptr %4, align 8
  %5 = getelementptr inbounds %"struct.std::_Vector_base<std::__cxx11::basic_string<char>, std::allocator<std::__cxx11::basic_string<char>>>::_Vector_impl_data", ptr %3, i32 0, i32 1
  store ptr null, ptr %5, align 8
  %6 = getelementptr inbounds %"struct.std::_Vector_base<std::__cxx11::basic_string<char>, std::allocator<std::__cxx11::basic_string<char>>>::_Vector_impl_data", ptr %3, i32 0, i32 2
  store ptr null, ptr %6, align 8
  ret void
}

; Function Attrs: mustprogress nounwind uwtable
define linkonce_odr void @_ZNSaINSt7__cxx1112basic_stringIcSt11char_traitsIcESaIcEEEEC2Ev(ptr noundef nonnull align 1 dereferenceable(1) %0) unnamed_addr #1 comdat align 2 {
  %2 = alloca ptr, align 8
  store ptr %0, ptr %2, align 8
  %3 = load ptr, ptr %2, align 8
  call void @_ZNSt15__new_allocatorINSt7__cxx1112basic_stringIcSt11char_traitsIcESaIcEEEEC2Ev(ptr noundef nonnull align 1 dereferenceable(1) %3) #10
  ret void
}

; Function Attrs: mustprogress nounwind uwtable
define linkonce_odr void @_ZNSt12_Vector_baseINSt7__cxx1112basic_stringIcSt11char_traitsIcESaIcEEESaIS5_EE12_Vector_implC2Ev(ptr noundef nonnull align 8 dereferenceable(24) %0) unnamed_addr #1 comdat align 2 {
  %2 = alloca ptr, align 8
  store ptr %0, ptr %2, align 8
  %3 = load ptr, ptr %2, align 8
  call void @_ZNSaINSt7__cxx1112basic_stringIcSt11char_traitsIcESaIcEEEEC2Ev(ptr noundef nonnull align 1 dereferenceable(1) %3) #10
  call void @_ZNSt12_Vector_baseINSt7__cxx1112basic_stringIcSt11char_traitsIcESaIcEEESaIS5_EE17_Vector_impl_dataC2Ev(ptr noundef nonnull align 8 dereferenceable(24) %3) #10
  ret void
}

; Function Attrs: mustprogress nounwind uwtable
define linkonce_odr void @_ZNSt12_Vector_baseINSt7__cxx1112basic_stringIcSt11char_traitsIcESaIcEEESaIS5_EEC2Ev(ptr noundef nonnull align 8 dereferenceable(24) %0) unnamed_addr #1 comdat align 2 {
  %2 = alloca ptr, align 8
  store ptr %0, ptr %2, align 8
  %3 = load ptr, ptr %2, align 8
  %4 = getelementptr inbounds %"struct.std::_Vector_base.9", ptr %3, i32 0, i32 0
  call void @_ZNSt12_Vector_baseINSt7__cxx1112basic_stringIcSt11char_traitsIcESaIcEEESaIS5_EE12_Vector_implC2Ev(ptr noundef nonnull align 8 dereferenceable(24) %4) #10
  ret void
}

; Function Attrs: mustprogress nounwind uwtable
define linkonce_odr hidden void @_ZN18projGridChunkCacheC2Ev(ptr noundef nonnull align 8 dereferenceable(52) %0) unnamed_addr #1 comdat align 2 {
  %2 = alloca ptr, align 8
  store ptr %0, ptr %2, align 8
  %3 = load ptr, ptr %2, align 8
  %4 = getelementptr inbounds %struct.projGridChunkCache, ptr %3, i32 0, i32 0
  store i8 1, ptr %4, align 8
  %5 = getelementptr inbounds %struct.projGridChunkCache, ptr %3, i32 0, i32 2
  call void @_ZNSt7__cxx1112basic_stringIcSt11char_traitsIcESaIcEEC1Ev(ptr noundef nonnull align 8 dereferenceable(32) %5) #10
  %6 = getelementptr inbounds %struct.projGridChunkCache, ptr %3, i32 0, i32 3
  store i64 314572800, ptr %6, align 8
  %7 = getelementptr inbounds %struct.projGridChunkCache, ptr %3, i32 0, i32 4
  store i32 86400, ptr %7, align 8
  ret void
}

; Function Attrs: mustprogress nounwind uwtable
define linkonce_odr hidden void @_ZN27projNetworkCallbacksAndDataC2Ev(ptr noundef nonnull align 8 dereferenceable(48) %0) unnamed_addr #1 comdat align 2 {
  %2 = alloca ptr, align 8
  store ptr %0, ptr %2, align 8
  %3 = load ptr, ptr %2, align 8
  %4 = getelementptr inbounds %struct.projNetworkCallbacksAndData, ptr %3, i32 0, i32 0
  store i8 0, ptr %4, align 8
  %5 = getelementptr inbounds %struct.projNetworkCallbacksAndData, ptr %3, i32 0, i32 1
  store ptr null, ptr %5, align 8
  %6 = getelementptr inbounds %struct.projNetworkCallbacksAndData, ptr %3, i32 0, i32 2
  store ptr null, ptr %6, align 8
  %7 = getelementptr inbounds %struct.projNetworkCallbacksAndData, ptr %3, i32 0, i32 3
  store ptr null, ptr %7, align 8
  %8 = getelementptr inbounds %struct.projNetworkCallbacksAndData, ptr %3, i32 0, i32 4
  store ptr null, ptr %8, align 8
  %9 = getelementptr inbounds %struct.projNetworkCallbacksAndData, ptr %3, i32 0, i32 5
  store ptr null, ptr %9, align 8
  ret void
}

; Function Attrs: mustprogress nounwind uwtable
define linkonce_odr hidden void @_ZN26projFileApiCallbackAndDataC2Ev(ptr noundef nonnull align 8 dereferenceable(88) %0) unnamed_addr #1 comdat align 2 {
  %2 = alloca ptr, align 8
  store ptr %0, ptr %2, align 8
  %3 = load ptr, ptr %2, align 8
  %4 = getelementptr inbounds %struct.projFileApiCallbackAndData, ptr %3, i32 0, i32 0
  store ptr null, ptr %4, align 8
  %5 = getelementptr inbounds %struct.projFileApiCallbackAndData, ptr %3, i32 0, i32 1
  store ptr null, ptr %5, align 8
  %6 = getelementptr inbounds %struct.projFileApiCallbackAndData, ptr %3, i32 0, i32 2
  store ptr null, ptr %6, align 8
  %7 = getelementptr inbounds %struct.projFileApiCallbackAndData, ptr %3, i32 0, i32 3
  store ptr null, ptr %7, align 8
  %8 = getelementptr inbounds %struct.projFileApiCallbackAndData, ptr %3, i32 0, i32 4
  store ptr null, ptr %8, align 8
  %9 = getelementptr inbounds %struct.projFileApiCallbackAndData, ptr %3, i32 0, i32 5
  store ptr null, ptr %9, align 8
  %10 = getelementptr inbounds %struct.projFileApiCallbackAndData, ptr %3, i32 0, i32 6
  store ptr null, ptr %10, align 8
  %11 = getelementptr inbounds %struct.projFileApiCallbackAndData, ptr %3, i32 0, i32 7
  store ptr null, ptr %11, align 8
  %12 = getelementptr inbounds %struct.projFileApiCallbackAndData, ptr %3, i32 0, i32 8
  store ptr null, ptr %12, align 8
  %13 = getelementptr inbounds %struct.projFileApiCallbackAndData, ptr %3, i32 0, i32 9
  store ptr null, ptr %13, align 8
  %14 = getelementptr inbounds %struct.projFileApiCallbackAndData, ptr %3, i32 0, i32 10
  store ptr null, ptr %14, align 8
  ret void
}

; Function Attrs: mustprogress nounwind uwtable
define linkonce_odr void @_ZNSt6vectorINSt7__cxx1112basic_stringIcSt11char_traitsIcESaIcEEESaIS5_EEC2Ev(ptr noundef nonnull align 8 dereferenceable(24) %0) unnamed_addr #1 comdat align 2 {
  %2 = alloca ptr, align 8
  store ptr %0, ptr %2, align 8
  %3 = load ptr, ptr %2, align 8
  call void @_ZNSt12_Vector_baseINSt7__cxx1112basic_stringIcSt11char_traitsIcESaIcEEESaIS5_EEC2Ev(ptr noundef nonnull align 8 dereferenceable(24) %3) #10
  ret void
}

; Function Attrs: mustprogress nounwind uwtable
define linkonce_odr hidden void @_ZN6pj_ctxC2Ev(ptr noundef nonnull align 8 dereferenceable(516) %0) unnamed_addr #1 comdat align 2 {
  %2 = alloca ptr, align 8
  store ptr %0, ptr %2, align 8
  %3 = load ptr, ptr %2, align 8
  %4 = getelementptr inbounds %struct.pj_ctx, ptr %3, i32 0, i32 0
  call void @_ZNSt7__cxx1112basic_stringIcSt11char_traitsIcESaIcEEC1Ev(ptr noundef nonnull align 8 dereferenceable(32) %4) #10
  %5 = getelementptr inbounds %struct.pj_ctx, ptr %3, i32 0, i32 1
  store i32 0, ptr %5, align 8
  %6 = getelementptr inbounds %struct.pj_ctx, ptr %3, i32 0, i32 2
  store i32 1, ptr %6, align 4
  %7 = getelementptr inbounds %struct.pj_ctx, ptr %3, i32 0, i32 3
  store i8 0, ptr %7, align 8
  %8 = getelementptr inbounds %struct.pj_ctx, ptr %3, i32 0, i32 4
  store i8 1, ptr %8, align 1
  %9 = getelementptr inbounds %struct.pj_ctx, ptr %3, i32 0, i32 6
  store ptr null, ptr %9, align 8
  %10 = getelementptr inbounds %struct.pj_ctx, ptr %3, i32 0, i32 7
  store ptr null, ptr %10, align 8
  %11 = getelementptr inbounds %struct.pj_ctx, ptr %3, i32 0, i32 8
  store ptr null, ptr %11, align 8
  %12 = getelementptr inbounds %struct.pj_ctx, ptr %3, i32 0, i32 9
  store i32 -1, ptr %12, align 8
  %13 = getelementptr inbounds %struct.pj_ctx, ptr %3, i32 0, i32 10
  store i8 0, ptr %13, align 4
  %14 = getelementptr inbounds %struct.pj_ctx, ptr %3, i32 0, i32 12
  store i32 -1, ptr %14, align 8
  %15 = getelementptr inbounds %struct.pj_ctx, ptr %3, i32 0, i32 14
  call void @_ZNSt7__cxx1112basic_stringIcSt11char_traitsIcESaIcEEC1Ev(ptr noundef nonnull align 8 dereferenceable(32) %15) #10
  %16 = getelementptr inbounds %struct.pj_ctx, ptr %3, i32 0, i32 15
  call void @llvm.memset.p0.i64(ptr align 8 %16, i8 0, i64 24, i1 false)
  call void @_ZNSt6vectorINSt7__cxx1112basic_stringIcSt11char_traitsIcESaIcEEESaIS5_EEC2Ev(ptr noundef nonnull align 8 dereferenceable(24) %16) #10
  %17 = getelementptr inbounds %struct.pj_ctx, ptr %3, i32 0, i32 16
  store ptr null, ptr %17, align 8
  %18 = getelementptr inbounds %struct.pj_ctx, ptr %3, i32 0, i32 17
  store ptr null, ptr %18, align 8
  %19 = getelementptr inbounds %struct.pj_ctx, ptr %3, i32 0, i32 18
  store ptr null, ptr %19, align 8
  %20 = getelementptr inbounds %struct.pj_ctx, ptr %3, i32 0, i32 19
  store i8 0, ptr %20, align 8
  %21 = getelementptr inbounds %struct.pj_ctx, ptr %3, i32 0, i32 21
  call void @llvm.memset.p0.i64(ptr align 8 %21, i8 0, i64 88, i1 false)
  call void @_ZN26projFileApiCallbackAndDataC2Ev(ptr noundef nonnull align 8 dereferenceable(88) %21) #10
  %22 = getelementptr inbounds %struct.pj_ctx, ptr %3, i32 0, i32 22
  call void @_ZNSt7__cxx1112basic_stringIcSt11char_traitsIcESaIcEEC1Ev(ptr noundef nonnull align 8 dereferenceable(32) %22) #10
  %23 = getelementptr inbounds %struct.pj_ctx, ptr %3, i32 0, i32 23
  call void @_ZNSt7__cxx1112basic_stringIcSt11char_traitsIcESaIcEEC1Ev(ptr noundef nonnull align 8 dereferenceable(32) %23) #10
  %24 = getelementptr inbounds %struct.pj_ctx, ptr %3, i32 0, i32 24
  store i8 0, ptr %24, align 8
  %25 = getelementptr inbounds %struct.pj_ctx, ptr %3, i32 0, i32 26
  call void @_ZNSt7__cxx1112basic_stringIcSt11char_traitsIcESaIcEEC1Ev(ptr noundef nonnull align 8 dereferenceable(32) %25) #10
  %26 = getelementptr inbounds %struct.pj_ctx, ptr %3, i32 0, i32 27
  call void @llvm.memset.p0.i64(ptr align 8 %26, i8 0, i64 48, i1 false)
  call void @_ZN27projNetworkCallbacksAndDataC2Ev(ptr noundef nonnull align 8 dereferenceable(48) %26) #10
  %27 = getelementptr inbounds %struct.pj_ctx, ptr %3, i32 0, i32 28
  call void @_ZNSt7__cxx1112basic_stringIcSt11char_traitsIcESaIcEEC1Ev(ptr noundef nonnull align 8 dereferenceable(32) %27) #10
  %28 = getelementptr inbounds %struct.pj_ctx, ptr %3, i32 0, i32 29
  call void @llvm.memset.p0.i64(ptr align 8 %28, i8 0, i64 56, i1 false)
  call void @_ZN18projGridChunkCacheC2Ev(ptr noundef nonnull align 8 dereferenceable(52) %28) #10
  %29 = getelementptr inbounds %struct.pj_ctx, ptr %3, i32 0, i32 30
  store i32 2, ptr %29, align 8
  %30 = getelementptr inbounds %struct.pj_ctx, ptr %3, i32 0, i32 31
  store i32 0, ptr %30, align 4
  %31 = getelementptr inbounds %struct.pj_ctx, ptr %3, i32 0, i32 32
  store i32 0, ptr %31, align 8
  ret void
}

; Function Attrs: mustprogress uwtable
define hidden void @_ZN6pj_ctx13createDefaultEv(ptr dead_on_unwind noalias writable sret(%struct.pj_ctx) align 8 %0) #0 align 2 personality ptr @__gxx_personality_v0 {
  %2 = alloca ptr, align 8
  %3 = alloca i1, align 1
  %4 = alloca ptr, align 8
  %5 = alloca i32, align 4
  %6 = alloca ptr, align 8
  %7 = alloca i32, align 4
  store ptr %0, ptr %2, align 8
  store i1 false, ptr %3, align 1
  call void @_ZN6pj_ctxC2Ev(ptr noundef nonnull align 8 dereferenceable(516) %0) #10
  %8 = getelementptr inbounds %struct.pj_ctx, ptr %0, i32 0, i32 2
  store i32 1, ptr %8, align 4
  %9 = getelementptr inbounds %struct.pj_ctx, ptr %0, i32 0, i32 6
  store ptr @_Z16pj_stderr_loggerPviPKc, ptr %9, align 8
  invoke void @_ZN5osgeo4proj11FileManager27fillDefaultNetworkInterfaceEP6pj_ctx(ptr noundef %0)
          to label %10 unwind label %19

10:                                               ; preds = %1
  %11 = call ptr @getenv(ptr noundef @.str) #10
  store ptr %11, ptr %6, align 8
  %12 = load ptr, ptr %6, align 8
  %13 = icmp ne ptr %12, null
  br i1 %13, label %14, label %64

14:                                               ; preds = %10
  %15 = load ptr, ptr %6, align 8
  %16 = call noundef zeroext i1 @_ZN5osgeo4proj8internal8ci_equalEPKcS3_(ptr noundef %15, ptr noundef @.str.1) #10
  br i1 %16, label %17, label %23

17:                                               ; preds = %14
  %18 = getelementptr inbounds %struct.pj_ctx, ptr %0, i32 0, i32 2
  store i32 2, ptr %18, align 4
  br label %63

19:                                               ; preds = %1
  %20 = landingpad { ptr, i32 }
          cleanup
  %21 = extractvalue { ptr, i32 } %20, 0
  store ptr %21, ptr %4, align 8
  %22 = extractvalue { ptr, i32 } %20, 1
  store i32 %22, ptr %5, align 4
  call void @_ZN6pj_ctxD1Ev(ptr noundef nonnull align 8 dereferenceable(516) %0) #10
  br label %68

23:                                               ; preds = %14
  %24 = load ptr, ptr %6, align 8
  %25 = call noundef zeroext i1 @_ZN5osgeo4proj8internal8ci_equalEPKcS3_(ptr noundef %24, ptr noundef @.str.2) #10
  br i1 %25, label %26, label %28

26:                                               ; preds = %23
  %27 = getelementptr inbounds %struct.pj_ctx, ptr %0, i32 0, i32 2
  store i32 1, ptr %27, align 4
  br label %62

28:                                               ; preds = %23
  %29 = load ptr, ptr %6, align 8
  %30 = getelementptr inbounds i8, ptr %29, i64 0
  %31 = load i8, ptr %30, align 1
  %32 = sext i8 %31 to i32
  %33 = icmp eq i32 %32, 45
  br i1 %33, label %46, label %34

34:                                               ; preds = %28
  %35 = load ptr, ptr %6, align 8
  %36 = getelementptr inbounds i8, ptr %35, i64 0
  %37 = load i8, ptr %36, align 1
  %38 = sext i8 %37 to i32
  %39 = icmp sge i32 %38, 48
  br i1 %39, label %40, label %57

40:                                               ; preds = %34
  %41 = load ptr, ptr %6, align 8
  %42 = getelementptr inbounds i8, ptr %41, i64 0
  %43 = load i8, ptr %42, align 1
  %44 = sext i8 %43 to i32
  %45 = icmp sle i32 %44, 57
  br i1 %45, label %46, label %57

46:                                               ; preds = %40, %28
  %47 = load ptr, ptr %6, align 8
  %48 = call i32 @atoi(ptr noundef %47) #15
  store i32 %48, ptr %7, align 4
  %49 = load i32, ptr %7, align 4
  %50 = icmp sge i32 %49, -3
  br i1 %50, label %51, label %54

51:                                               ; preds = %46
  %52 = load i32, ptr %7, align 4
  %53 = getelementptr inbounds %struct.pj_ctx, ptr %0, i32 0, i32 2
  store i32 %52, ptr %53, align 4
  br label %56

54:                                               ; preds = %46
  %55 = getelementptr inbounds %struct.pj_ctx, ptr %0, i32 0, i32 2
  store i32 3, ptr %55, align 4
  br label %56

56:                                               ; preds = %54, %51
  br label %61

57:                                               ; preds = %40, %34
  %58 = load ptr, ptr @stderr, align 8
  %59 = load ptr, ptr %6, align 8
  %60 = call i32 (ptr, ptr, ...) @fprintf(ptr noundef %58, ptr noundef @.str.3, ptr noundef %59) #10
  br label %61

61:                                               ; preds = %57, %56
  br label %62

62:                                               ; preds = %61, %26
  br label %63

63:                                               ; preds = %62, %17
  br label %64

64:                                               ; preds = %63, %10
  store i1 true, ptr %3, align 1
  %65 = load i1, ptr %3, align 1
  br i1 %65, label %67, label %66

66:                                               ; preds = %64
  call void @_ZN6pj_ctxD1Ev(ptr noundef nonnull align 8 dereferenceable(516) %0) #10
  br label %67

67:                                               ; preds = %66, %64
  ret void

68:                                               ; preds = %19
  %69 = load ptr, ptr %4, align 8
  %70 = load i32, ptr %5, align 4
  %71 = insertvalue { ptr, i32 } poison, ptr %69, 0
  %72 = insertvalue { ptr, i32 } %71, i32 %70, 1
  resume { ptr, i32 } %72
}