; Function Attrs: mustprogress uwtable
define hidden void @_ZN6pj_ctx13createDefaultEv(ptr dead_on_unwind noalias nonnull writable sret(%struct.pj_ctx) align 8 %0) local_unnamed_addr #0 align 2 personality ptr @__gxx_personality_v0 {
  tail call void @_ZNSt7__cxx1112basic_stringIcSt11char_traitsIcESaIcEEC1Ev(ptr noundef nonnull align 8 dereferenceable(32) %0) #15
  %2 = getelementptr inbounds i8, ptr %0, i64 32
  store i32 0, ptr %2, align 8
  %3 = getelementptr inbounds i8, ptr %0, i64 36
  store i32 1, ptr %3, align 4
  %4 = getelementptr inbounds i8, ptr %0, i64 40
  store i8 0, ptr %4, align 8
  %5 = getelementptr inbounds i8, ptr %0, i64 41
  store i8 1, ptr %5, align 1
  %6 = getelementptr inbounds i8, ptr %0, i64 48
  %7 = getelementptr inbounds i8, ptr %0, i64 72
  tail call void @llvm.memset.p0.i64(ptr noundef nonnull align 8 dereferenceable(24) %6, i8 0, i64 24, i1 false)
  store i32 -1, ptr %7, align 8
  %8 = getelementptr inbounds i8, ptr %0, i64 76
  store i8 0, ptr %8, align 4
  %9 = getelementptr inbounds i8, ptr %0, i64 80
  store i32 -1, ptr %9, align 8
  %10 = getelementptr inbounds i8, ptr %0, i64 88
  tail call void @_ZNSt7__cxx1112basic_stringIcSt11char_traitsIcESaIcEEC1Ev(ptr noundef nonnull align 8 dereferenceable(32) %10) #15
  %11 = getelementptr inbounds i8, ptr %0, i64 120
  %12 = getelementptr inbounds i8, ptr %0, i64 176
  %13 = getelementptr inbounds i8, ptr %0, i64 264
  tail call void @llvm.memset.p0.i64(ptr noundef nonnull align 8 dereferenceable(49) %11, i8 0, i64 49, i1 false)
  tail call void @llvm.memset.p0.i64(ptr noundef nonnull align 8 dereferenceable(88) %12, i8 0, i64 88, i1 false)
  tail call void @_ZNSt7__cxx1112basic_stringIcSt11char_traitsIcESaIcEEC1Ev(ptr noundef nonnull align 8 dereferenceable(32) %13) #15
  %14 = getelementptr inbounds i8, ptr %0, i64 296
  tail call void @_ZNSt7__cxx1112basic_stringIcSt11char_traitsIcESaIcEEC1Ev(ptr noundef nonnull align 8 dereferenceable(32) %14) #15
  %15 = getelementptr inbounds i8, ptr %0, i64 328
  store i8 0, ptr %15, align 8
  %16 = getelementptr inbounds i8, ptr %0, i64 336
  tail call void @_ZNSt7__cxx1112basic_stringIcSt11char_traitsIcESaIcEEC1Ev(ptr noundef nonnull align 8 dereferenceable(32) %16) #15
  %17 = getelementptr inbounds i8, ptr %0, i64 368
  %18 = getelementptr inbounds i8, ptr %0, i64 416
  tail call void @llvm.memset.p0.i64(ptr noundef nonnull align 8 dereferenceable(48) %17, i8 0, i64 48, i1 false)
  tail call void @_ZNSt7__cxx1112basic_stringIcSt11char_traitsIcESaIcEEC1Ev(ptr noundef nonnull align 8 dereferenceable(32) %18) #15
  %19 = getelementptr inbounds i8, ptr %0, i64 448
  tail call void @llvm.memset.p0.i64(ptr noundef nonnull align 8 dereferenceable(56) %19, i8 0, i64 56, i1 false)
  store i8 1, ptr %19, align 8
  %20 = getelementptr inbounds i8, ptr %0, i64 456
  tail call void @_ZNSt7__cxx1112basic_stringIcSt11char_traitsIcESaIcEEC1Ev(ptr noundef nonnull align 8 dereferenceable(32) %20) #15
  %21 = getelementptr inbounds i8, ptr %0, i64 488
  store i64 314572800, ptr %21, align 8
  %22 = getelementptr inbounds i8, ptr %0, i64 496
  store i32 86400, ptr %22, align 8
  %23 = getelementptr inbounds i8, ptr %0, i64 504
  store i32 2, ptr %23, align 8
  %24 = getelementptr inbounds i8, ptr %0, i64 508
  store i32 0, ptr %24, align 4
  %25 = getelementptr inbounds i8, ptr %0, i64 512
  store i32 0, ptr %25, align 8
  store i32 1, ptr %3, align 4
  store ptr @_Z16pj_stderr_loggerPviPKc, ptr %6, align 8
  invoke void @_ZN5osgeo4proj11FileManager27fillDefaultNetworkInterfaceEP6pj_ctx(ptr noundef nonnull %0)
          to label %26 unwind label %31

26:                                               ; preds = %1
  %27 = tail call ptr @getenv(ptr noundef nonnull @.str) #15
  %.not = icmp eq ptr %27, null
  br i1 %.not, label %48, label %28

28:                                               ; preds = %26
  %29 = tail call noundef zeroext i1 @_ZN5osgeo4proj8internal8ci_equalEPKcS3_(ptr noundef nonnull %27, ptr noundef nonnull @.str.1) #15
  br i1 %29, label %30, label %33

30:                                               ; preds = %28
  store i32 2, ptr %3, align 4
  br label %48

31:                                               ; preds = %1
  %32 = landingpad { ptr, i32 }
          cleanup
  tail call void @_ZN6pj_ctxD2Ev(ptr noundef nonnull align 8 dereferenceable(516) %0) #15
  resume { ptr, i32 } %32

33:                                               ; preds = %28
  %34 = tail call noundef zeroext i1 @_ZN5osgeo4proj8internal8ci_equalEPKcS3_(ptr noundef nonnull %27, ptr noundef nonnull @.str.2) #15
  br i1 %34, label %35, label %36

35:                                               ; preds = %33
  store i32 1, ptr %3, align 4
  br label %48

36:                                               ; preds = %33
  %37 = load i8, ptr %27, align 1
  %38 = icmp eq i8 %37, 45
  %39 = add i8 %37, -48
  %or.cond = icmp ult i8 %39, 10
  %or.cond14 = or i1 %38, %or.cond
  br i1 %or.cond14, label %40, label %45

40:                                               ; preds = %36
  %41 = tail call i32 @atoi(ptr nocapture noundef nonnull %27) #16
  %42 = icmp sgt i32 %41, -4
  br i1 %42, label %43, label %44

43:                                               ; preds = %40
  store i32 %41, ptr %3, align 4
  br label %48

44:                                               ; preds = %40
  store i32 3, ptr %3, align 4
  br label %48

45:                                               ; preds = %36
  %46 = load ptr, ptr @stderr, align 8
  %47 = tail call i32 (ptr, ptr, ...) @fprintf(ptr noundef %46, ptr noundef nonnull @.str.3, ptr noundef nonnull %27) #17
  br label %48

48:                                               ; preds = %26, %35, %43, %44, %45, %30
  ret void
}